target datalayout = "e-m:e-p270:32:32-p271:32:32-p272:64:64-i64:64-i128:128-f80:128-n8:16:32:64-S128"
target triple = "x86_64-pc-linux-gnu"

%struct.AggState = type { %struct.ScanState, ptr, i32, i32, i32, i32, ptr, i32, i32, ptr, ptr, ptr, ptr, ptr, ptr, ptr, ptr, i8, i8, i32, i32, ptr, ptr, ptr, i32, i8, i32, ptr, ptr, ptr, ptr, ptr, ptr, i8, i32, ptr, ptr, ptr, ptr, ptr, ptr, i8, i8, i64, i64, i32, double, i64, i64, i64, i32, ptr, ptr, ptr, ptr }
%struct.ScanState = type { %struct.PlanState, ptr, ptr, ptr }
%struct.PlanState = type { i32, ptr, ptr, ptr, ptr, ptr, ptr, ptr, ptr, ptr, ptr, ptr, ptr, ptr, ptr, ptr, ptr, ptr, i8, ptr, ptr, ptr, ptr, ptr, i8, i8, i8, i8, i8, i8, i8, i8 }
%struct.TupleTableSlot = type { i32, i16, i16, ptr, ptr, ptr, ptr, ptr, %struct.ItemPointerData, i32 }
%struct.ItemPointerData = type { %struct.BlockIdData, i16 }
%struct.BlockIdData = type { i16, i16 }

@InterruptPending = external global i32, align 4

; Function Attrs: inlinehint nounwind uwtable
define internal ptr @ExecProcNode(ptr noundef %0) #3 {
  %2 = alloca ptr, align 8
  store ptr %0, ptr %2, align 8
  %3 = load ptr, ptr %2, align 8
  %4 = getelementptr inbounds nuw %struct.PlanState, ptr %3, i32 0, i32 13
  %5 = load ptr, ptr %4, align 8
  %6 = icmp ne ptr %5, null
  br i1 %6, label %7, label %9

7:                                                ; preds = %1
  %8 = load ptr, ptr %2, align 8
  call void @ExecReScan(ptr noundef %8)
  br label %9

9:                                                ; preds = %7, %1
  %10 = load ptr, ptr %2, align 8
  %11 = getelementptr inbounds nuw %struct.PlanState, ptr %10, i32 0, i32 3
  %12 = load ptr, ptr %11, align 8
  %13 = load ptr, ptr %2, align 8
  %14 = call ptr %12(ptr noundef %13)
  ret ptr %14
}

; Function Attrs: nounwind uwtable
define internal ptr @fetch_input_tuple(ptr noundef %0) #0 {
  %2 = alloca ptr, align 8
  %3 = alloca ptr, align 8
  %4 = alloca ptr, align 8
  %5 = alloca i32, align 4
  store ptr %0, ptr %3, align 8
  call void @llvm.lifetime.start.p0(i64 8, ptr %4) #9
  %6 = load ptr, ptr %3, align 8
  %7 = getelementptr inbounds nuw %struct.AggState, ptr %6, i32 0, i32 28
  %8 = load ptr, ptr %7, align 8
  %9 = icmp ne ptr %8, null
  br i1 %9, label %10, label %34

10:                                               ; preds = %1
  br label %11

11:                                               ; preds = %10
  %12 = load volatile i32, ptr @InterruptPending, align 4
  %13 = icmp ne i32 %12, 0
  %14 = zext i1 %13 to i32
  %15 = sext i32 %14 to i64
  %16 = call i64 @llvm.expect.i64(i64 %15, i64 0)
  %17 = icmp ne i64 %16, 0
  br i1 %17, label %18, label %19

18:                                               ; preds = %11
  call void @ProcessInterrupts()
  br label %19

19:                                               ; preds = %18, %11
  br label %20

20:                                               ; preds = %19
  br label %21

21:                                               ; preds = %20
  %22 = load ptr, ptr %3, align 8
  %23 = getelementptr inbounds nuw %struct.AggState, ptr %22, i32 0, i32 28
  %24 = load ptr, ptr %23, align 8
  %25 = load ptr, ptr %3, align 8
  %26 = getelementptr inbounds nuw %struct.AggState, ptr %25, i32 0, i32 30
  %27 = load ptr, ptr %26, align 8
  %28 = call zeroext i1 @tuplesort_gettupleslot(ptr noundef %24, i1 noundef zeroext true, i1 noundef zeroext false, ptr noundef %27, ptr noundef null)
  br i1 %28, label %30, label %29

29:                                               ; preds = %21
  store ptr null, ptr %2, align 8
  store i32 1, ptr %5, align 4
  br label %61

30:                                               ; preds = %21
  %31 = load ptr, ptr %3, align 8
  %32 = getelementptr inbounds nuw %struct.AggState, ptr %31, i32 0, i32 30
  %33 = load ptr, ptr %32, align 8
  store ptr %33, ptr %4, align 8
  br label %39

34:                                               ; preds = %1
  %35 = load ptr, ptr %3, align 8
  %36 = getelementptr inbounds nuw %struct.PlanState, ptr %35, i32 0, i32 9
  %37 = load ptr, ptr %36, align 8
  %38 = call ptr @ExecProcNode(ptr noundef %37)
  store ptr %38, ptr %4, align 8
  br label %39

39:                                               ; preds = %34, %30
  %40 = load ptr, ptr %4, align 8
  %41 = icmp eq ptr %40, null
  br i1 %41, label %59, label %42

42:                                               ; preds = %39
  %43 = load ptr, ptr %4, align 8
  %44 = getelementptr inbounds nuw %struct.TupleTableSlot, ptr %43, i32 0, i32 1
  %45 = load i16, ptr %44, align 4
  %46 = zext i16 %45 to i32
  %47 = and i32 %46, 2
  %48 = icmp ne i32 %47, 0
  br i1 %48, label %59, label %49

49:                                               ; preds = %42
  %50 = load ptr, ptr %3, align 8
  %51 = getelementptr inbounds nuw %struct.AggState, ptr %50, i32 0, i32 29
  %52 = load ptr, ptr %51, align 8
  %53 = icmp ne ptr %52, null
  br i1 %53, label %54, label %59

54:                                               ; preds = %49
  %55 = load ptr, ptr %3, align 8
  %56 = getelementptr inbounds nuw %struct.AggState, ptr %55, i32 0, i32 29
  %57 = load ptr, ptr %56, align 8
  %58 = load ptr, ptr %4, align 8
  call void @tuplesort_puttupleslot(ptr noundef %57, ptr noundef %58)
  br label %59

59:                                               ; preds = %54, %49, %42, %39
  %60 = load ptr, ptr %4, align 8
  store ptr %60, ptr %2, align 8
  store i32 1, ptr %5, align 4
  br label %61

61:                                               ; preds = %59, %29
  call void @llvm.lifetime.end.p0(i64 8, ptr %4) #9
  %62 = load ptr, ptr %2, align 8
  ret ptr %62
}