; Function Attrs: nounwind uwtable
define internal fastcc ptr @fetch_input_tuple(ptr noundef readonly captures(none) %0) unnamed_addr #2 {
  %2 = getelementptr inbounds nuw i8, ptr %0, i64 392
  %3 = load ptr, ptr %2, align 8
  %.not = icmp eq ptr %3, null
  br i1 %.not, label %14, label %4

4:                                                ; preds = %1
  %5 = load volatile i32, ptr @InterruptPending, align 4
  %.not14 = icmp eq i32 %5, 0
  br i1 %.not14, label %7, label %6, !prof !23

6:                                                ; preds = %4
  tail call void @ProcessInterrupts() #12
  %.pre = load ptr, ptr %2, align 8
  br label %7

7:                                                ; preds = %6, %4
  %8 = phi ptr [ %.pre, %6 ], [ %3, %4 ]
  %9 = getelementptr inbounds nuw i8, ptr %0, i64 408
  %10 = load ptr, ptr %9, align 8
  %11 = tail call zeroext i1 @tuplesort_gettupleslot(ptr noundef %8, i1 noundef zeroext true, i1 noundef zeroext false, ptr noundef %10, ptr noundef null) #12
  br i1 %11, label %12, label %33

12:                                               ; preds = %7
  %13 = load ptr, ptr %9, align 8
  br label %23

14:                                               ; preds = %1
  %15 = getelementptr inbounds nuw i8, ptr %0, i64 72
  %16 = load ptr, ptr %15, align 8
  %17 = getelementptr inbounds nuw i8, ptr %16, i64 104
  %18 = load ptr, ptr %17, align 8
  %.not.i = icmp eq ptr %18, null
  br i1 %.not.i, label %ExecProcNode.exit, label %19

19:                                               ; preds = %14
  tail call void @ExecReScan(ptr noundef nonnull %16) #12
  br label %ExecProcNode.exit

ExecProcNode.exit:                                ; preds = %14, %19
  %20 = getelementptr inbounds nuw i8, ptr %16, i64 24
  %21 = load ptr, ptr %20, align 8
  %22 = tail call ptr %21(ptr noundef nonnull %16) #12
  br label %23

23:                                               ; preds = %ExecProcNode.exit, %12
  %.0 = phi ptr [ %13, %12 ], [ %22, %ExecProcNode.exit ]
  %24 = icmp eq ptr %.0, null
  br i1 %24, label %33, label %25

25:                                               ; preds = %23
  %26 = getelementptr inbounds nuw i8, ptr %.0, i64 4
  %27 = load i16, ptr %26, align 4
  %28 = and i16 %27, 2
  %.not15 = icmp eq i16 %28, 0
  br i1 %.not15, label %29, label %33

29:                                               ; preds = %25
  %30 = getelementptr inbounds nuw i8, ptr %0, i64 400
  %31 = load ptr, ptr %30, align 8
  %.not16 = icmp eq ptr %31, null
  br i1 %.not16, label %33, label %32

32:                                               ; preds = %29
  tail call void @tuplesort_puttupleslot(ptr noundef nonnull %31, ptr noundef nonnull %.0) #12
  br label %33

33:                                               ; preds = %23, %25, %29, %32, %7
  %.012 = phi ptr [ null, %7 ], [ %.0, %32 ], [ %.0, %29 ], [ %.0, %25 ], [ null, %23 ]
  ret ptr %.012
}